; Function Attrs: nounwind uwtable
define internal i32 @fold_kfold_snew_empty(ptr noundef %0) #0 {
  %2 = getelementptr inbounds nuw i8, ptr %0, i64 208
  %3 = load i32, ptr %2, align 8, !tbaa !28
  %4 = icmp eq i32 %3, 0
  br i1 %4, label %5, label %8

5:                                                ; preds = %1
  %6 = getelementptr inbounds i8, ptr %0, i64 -616
  %7 = tail call i32 @lj_ir_kgc(ptr noundef nonnull %0, ptr noundef nonnull %6, i32 noundef 4) #12
  br label %8

8:                                                ; preds = %1, %5
  %.0 = phi i32 [ %7, %5 ], [ 0, %1 ]
  ret i32 %.0
}